target datalayout = "e-m:e-p270:32:32-p271:32:32-p272:64:64-i64:64-i128:128-f80:128-n8:16:32:64-S128"
target triple = "x86_64-pc-linux-gnu"

%struct.anon = type { i32, [6 x i8], i32, i32, i32, i32 }
%struct.AVCodecParameters = type { i32, i32, i32, ptr, i32, ptr, i32, i32, i64, i32, i32, i32, i32, i32, i32, %struct.AVRational, %struct.AVRational, i32, i32, i32, i32, i32, i32, i32, %struct.AVChannelLayout, i32, i32, i32, i32, i32, i32 }
%struct.AVRational = type { i32, i32 }
%struct.AVChannelLayout = type { i32, i32, %union.anon, ptr }
%union.anon = type { i64 }

; Function Attrs: nounwind uwtable
define i32 @ff_rtp_get_codec_info(ptr noundef %0, i32 noundef %1) #0 {
  %3 = alloca i32, align 4
  %4 = alloca ptr, align 8
  %5 = alloca i32, align 4
  %6 = alloca i32, align 4
  %7 = alloca i32, align 4
  store ptr %0, ptr %4, align 8, !tbaa !4
  store i32 %1, ptr %5, align 4, !tbaa !9
  call void @llvm.lifetime.start.p0(i64 4, ptr %6) #3
  store i32 0, ptr %6, align 4, !tbaa !9
  store i32 0, ptr %6, align 4, !tbaa !9
  br label %8

8:                                                ; preds = %83, %2
  %9 = load i32, ptr %6, align 4, !tbaa !9
  %10 = sext i32 %9 to i64
  %11 = getelementptr inbounds [27 x %struct.anon], ptr @rtp_payload_types, i64 0, i64 %10
  %12 = getelementptr inbounds nuw %struct.anon, ptr %11, i32 0, i32 0
  %13 = load i32, ptr %12, align 4, !tbaa !11
  %14 = icmp sge i32 %13, 0
  br i1 %14, label %15, label %86

15:                                               ; preds = %8
  %16 = load i32, ptr %6, align 4, !tbaa !9
  %17 = sext i32 %16 to i64
  %18 = getelementptr inbounds [27 x %struct.anon], ptr @rtp_payload_types, i64 0, i64 %17
  %19 = getelementptr inbounds nuw %struct.anon, ptr %18, i32 0, i32 0
  %20 = load i32, ptr %19, align 4, !tbaa !11
  %21 = load i32, ptr %5, align 4, !tbaa !9
  %22 = icmp eq i32 %20, %21
  br i1 %22, label %23, label %82

23:                                               ; preds = %15
  %24 = load i32, ptr %6, align 4, !tbaa !9
  %25 = sext i32 %24 to i64
  %26 = getelementptr inbounds [27 x %struct.anon], ptr @rtp_payload_types, i64 0, i64 %25
  %27 = getelementptr inbounds nuw %struct.anon, ptr %26, i32 0, i32 3
  %28 = load i32, ptr %27, align 4, !tbaa !13
  %29 = icmp ne i32 %28, 0
  br i1 %29, label %30, label %81

30:                                               ; preds = %23
  %31 = load i32, ptr %6, align 4, !tbaa !9
  %32 = sext i32 %31 to i64
  %33 = getelementptr inbounds [27 x %struct.anon], ptr @rtp_payload_types, i64 0, i64 %32
  %34 = getelementptr inbounds nuw %struct.anon, ptr %33, i32 0, i32 2
  %35 = load i32, ptr %34, align 4, !tbaa !14
  %36 = load ptr, ptr %4, align 8, !tbaa !4
  %37 = getelementptr inbounds nuw %struct.AVCodecParameters, ptr %36, i32 0, i32 0
  store i32 %35, ptr %37, align 8, !tbaa !15
  %38 = load i32, ptr %6, align 4, !tbaa !9
  %39 = sext i32 %38 to i64
  %40 = getelementptr inbounds [27 x %struct.anon], ptr @rtp_payload_types, i64 0, i64 %39
  %41 = getelementptr inbounds nuw %struct.anon, ptr %40, i32 0, i32 3
  %42 = load i32, ptr %41, align 4, !tbaa !13
  %43 = load ptr, ptr %4, align 8, !tbaa !4
  %44 = getelementptr inbounds nuw %struct.AVCodecParameters, ptr %43, i32 0, i32 1
  store i32 %42, ptr %44, align 4, !tbaa !22
  %45 = load i32, ptr %6, align 4, !tbaa !9
  %46 = sext i32 %45 to i64
  %47 = getelementptr inbounds [27 x %struct.anon], ptr @rtp_payload_types, i64 0, i64 %46
  %48 = getelementptr inbounds nuw %struct.anon, ptr %47, i32 0, i32 5
  %49 = load i32, ptr %48, align 4, !tbaa !23
  %50 = icmp sgt i32 %49, 0
  br i1 %50, label %51, label %65

51:                                               ; preds = %30
  %52 = load ptr, ptr %4, align 8, !tbaa !4
  %53 = getelementptr inbounds nuw %struct.AVCodecParameters, ptr %52, i32 0, i32 24
  call void @av_channel_layout_uninit(ptr noundef %53)
  %54 = load ptr, ptr %4, align 8, !tbaa !4
  %55 = getelementptr inbounds nuw %struct.AVCodecParameters, ptr %54, i32 0, i32 24
  %56 = getelementptr inbounds nuw %struct.AVChannelLayout, ptr %55, i32 0, i32 0
  store i32 0, ptr %56, align 8, !tbaa !24
  %57 = load i32, ptr %6, align 4, !tbaa !9
  %58 = sext i32 %57 to i64
  %59 = getelementptr inbounds [27 x %struct.anon], ptr @rtp_payload_types, i64 0, i64 %58
  %60 = getelementptr inbounds nuw %struct.anon, ptr %59, i32 0, i32 5
  %61 = load i32, ptr %60, align 4, !tbaa !23
  %62 = load ptr, ptr %4, align 8, !tbaa !4
  %63 = getelementptr inbounds nuw %struct.AVCodecParameters, ptr %62, i32 0, i32 24
  %64 = getelementptr inbounds nuw %struct.AVChannelLayout, ptr %63, i32 0, i32 1
  store i32 %61, ptr %64, align 4, !tbaa !25
  br label %65

65:                                               ; preds = %51, %30
  %66 = load i32, ptr %6, align 4, !tbaa !9
  %67 = sext i32 %66 to i64
  %68 = getelementptr inbounds [27 x %struct.anon], ptr @rtp_payload_types, i64 0, i64 %67
  %69 = getelementptr inbounds nuw %struct.anon, ptr %68, i32 0, i32 4
  %70 = load i32, ptr %69, align 4, !tbaa !26
  %71 = icmp sgt i32 %70, 0
  br i1 %71, label %72, label %80

72:                                               ; preds = %65
  %73 = load i32, ptr %6, align 4, !tbaa !9
  %74 = sext i32 %73 to i64
  %75 = getelementptr inbounds [27 x %struct.anon], ptr @rtp_payload_types, i64 0, i64 %74
  %76 = getelementptr inbounds nuw %struct.anon, ptr %75, i32 0, i32 4
  %77 = load i32, ptr %76, align 4, !tbaa !26
  %78 = load ptr, ptr %4, align 8, !tbaa !4
  %79 = getelementptr inbounds nuw %struct.AVCodecParameters, ptr %78, i32 0, i32 25
  store i32 %77, ptr %79, align 8, !tbaa !27
  br label %80

80:                                               ; preds = %72, %65
  store i32 0, ptr %3, align 4
  store i32 1, ptr %7, align 4
  br label %87

81:                                               ; preds = %23
  br label %82

82:                                               ; preds = %81, %15
  br label %83

83:                                               ; preds = %82
  %84 = load i32, ptr %6, align 4, !tbaa !9
  %85 = add nsw i32 %84, 1
  store i32 %85, ptr %6, align 4, !tbaa !9
  br label %8, !llvm.loop !28

86:                                               ; preds = %8
  store i32 -1, ptr %3, align 4
  store i32 1, ptr %7, align 4
  br label %87

87:                                               ; preds = %86, %80
  call void @llvm.lifetime.end.p0(i64 4, ptr %6) #3
  %88 = load i32, ptr %3, align 4
  ret i32 %88
}