; Function Attrs: nounwind uwtable
define range(i32 -1, 1) i32 @ff_rtp_get_codec_info(ptr noundef %0, i32 noundef %1) local_unnamed_addr #0 {
  br label %3

3:                                                ; preds = %2, %26
  %indvars.iv = phi i64 [ 0, %2 ], [ %indvars.iv.next, %26 ]
  %4 = phi i32 [ 0, %2 ], [ %28, %26 ]
  %5 = phi ptr [ @rtp_payload_types, %2 ], [ %27, %26 ]
  %6 = icmp eq i32 %4, %1
  br i1 %6, label %7, label %26

7:                                                ; preds = %3
  %8 = getelementptr inbounds nuw i8, ptr %5, i64 16
  %9 = load i32, ptr %8, align 4, !tbaa !4
  %.not = icmp eq i32 %9, 0
  br i1 %.not, label %26, label %10

10:                                               ; preds = %7
  %11 = getelementptr inbounds nuw i8, ptr %5, i64 12
  %12 = load i32, ptr %11, align 4, !tbaa !9
  store i32 %12, ptr %0, align 8, !tbaa !10
  %13 = getelementptr inbounds nuw i8, ptr %0, i64 4
  store i32 %9, ptr %13, align 4, !tbaa !18
  %14 = getelementptr inbounds nuw i8, ptr %5, i64 24
  %15 = load i32, ptr %14, align 4, !tbaa !19
  %16 = icmp sgt i32 %15, 0
  br i1 %16, label %17, label %20

17:                                               ; preds = %10
  %18 = getelementptr inbounds nuw i8, ptr %0, i64 128
  tail call void @av_channel_layout_uninit(ptr noundef nonnull %18) #4
  store i32 0, ptr %18, align 8, !tbaa !20
  %19 = getelementptr inbounds nuw i8, ptr %0, i64 132
  store i32 %15, ptr %19, align 4, !tbaa !21
  br label %20

20:                                               ; preds = %17, %10
  %21 = getelementptr inbounds nuw i8, ptr %5, i64 20
  %22 = load i32, ptr %21, align 4, !tbaa !22
  %23 = icmp sgt i32 %22, 0
  br i1 %23, label %24, label %.loopexit

24:                                               ; preds = %20
  %25 = getelementptr inbounds nuw i8, ptr %0, i64 152
  store i32 %22, ptr %25, align 8, !tbaa !23
  br label %.loopexit

26:                                               ; preds = %3, %7
  %indvars.iv.next = add nuw nsw i64 %indvars.iv, 1
  %27 = getelementptr inbounds nuw [27 x %struct.anon], ptr @rtp_payload_types, i64 0, i64 %indvars.iv.next
  %28 = load i32, ptr %27, align 4, !tbaa !24
  %exitcond.not = icmp eq i64 %indvars.iv.next, 26
  br i1 %exitcond.not, label %.loopexit, label %3, !llvm.loop !25

.loopexit:                                        ; preds = %26, %20, %24
  %.017 = phi i32 [ 0, %24 ], [ 0, %20 ], [ -1, %26 ]
  ret i32 %.017
}